target datalayout = "e-m:e-p270:32:32-p271:32:32-p272:64:64-i64:64-i128:128-f80:128-n8:16:32:64-S128"
target triple = "x86_64-pc-linux-gnu"

%struct.write_loose_object_data = type { ptr, i32, i32 }

@.str.140 = private unnamed_addr constant [4 x i8] c"%s\0A\00", align 1

; Function Attrs: nounwind uwtable
define internal i32 @write_loose_object_to_stdin(ptr noundef %0, ptr noundef %1, ptr noundef %2) #0 {
  %4 = alloca ptr, align 8
  %5 = alloca ptr, align 8
  %6 = alloca ptr, align 8
  %7 = alloca ptr, align 8
  store ptr %0, ptr %4, align 8, !tbaa !187
  store ptr %1, ptr %5, align 8, !tbaa !11
  store ptr %2, ptr %6, align 8, !tbaa !54
  call void @llvm.lifetime.start.p0(i64 8, ptr %7) #11
  %8 = load ptr, ptr %6, align 8, !tbaa !54
  store ptr %8, ptr %7, align 8, !tbaa !188
  %9 = load ptr, ptr %7, align 8, !tbaa !188
  %10 = getelementptr inbounds nuw %struct.write_loose_object_data, ptr %9, i32 0, i32 0
  %11 = load ptr, ptr %10, align 8, !tbaa !183
  %12 = load ptr, ptr %4, align 8, !tbaa !187
  %13 = call ptr @oid_to_hex(ptr noundef %12)
  %14 = call i32 (ptr, ptr, ...) @fprintf(ptr noundef %11, ptr noundef @.str.140, ptr noundef %13) #11
  %15 = load ptr, ptr %7, align 8, !tbaa !188
  %16 = getelementptr inbounds nuw %struct.write_loose_object_data, ptr %15, i32 0, i32 1
  %17 = load i32, ptr %16, align 8, !tbaa !185
  %18 = add nsw i32 %17, 1
  store i32 %18, ptr %16, align 8, !tbaa !185
  %19 = load ptr, ptr %7, align 8, !tbaa !188
  %20 = getelementptr inbounds nuw %struct.write_loose_object_data, ptr %19, i32 0, i32 2
  %21 = load i32, ptr %20, align 4, !tbaa !186
  %22 = icmp sgt i32 %18, %21
  %23 = zext i1 %22 to i32
  call void @llvm.lifetime.end.p0(i64 8, ptr %7) #11
  ret i32 %23
}