; Function Attrs: nounwind uwtable
define internal range(i32 0, 2) i32 @write_loose_object_to_stdin(ptr noundef %0, ptr readnone captures(none) %1, ptr noundef captures(none) %2) #0 {
  %4 = load ptr, ptr %2, align 8, !tbaa !144
  %5 = tail call ptr @oid_to_hex(ptr noundef %0) #21
  %6 = tail call i32 (ptr, ptr, ...) @fprintf(ptr noundef %4, ptr noundef nonnull @.str.140, ptr noundef %5) #21
  %7 = getelementptr inbounds nuw i8, ptr %2, i64 8
  %8 = load i32, ptr %7, align 8, !tbaa !146
  %9 = add nsw i32 %8, 1
  store i32 %9, ptr %7, align 8, !tbaa !146
  %10 = getelementptr inbounds nuw i8, ptr %2, i64 12
  %11 = load i32, ptr %10, align 4, !tbaa !147
  %12 = icmp sge i32 %8, %11
  %13 = zext i1 %12 to i32
  ret i32 %13
}